target datalayout = "e-m:e-p270:32:32-p271:32:32-p272:64:64-i64:64-i128:128-f80:128-n8:16:32:64-S128"
target triple = "x86_64-pc-linux-gnu"

@.str.1787 = private unnamed_addr constant [11 x i8] c" (%lu KiB)\00", align 1
@.str.1788 = private unnamed_addr constant [11 x i8] c" (%lu MiB)\00", align 1
@.str.1789 = private unnamed_addr constant [11 x i8] c" (%lu GiB)\00", align 1
@.str.1790 = private unnamed_addr constant [11 x i8] c" (%lu TiB)\00", align 1
@.str.1791 = private unnamed_addr constant [11 x i8] c" (%lu PiB)\00", align 1
@.str.1792 = private unnamed_addr constant [11 x i8] c" (%lu EiB)\00", align 1
@.str.1793 = private unnamed_addr constant [11 x i8] c" (%lu ZiB)\00", align 1
@.str.1794 = private unnamed_addr constant [13 x i8] c" (%lu bytes)\00", align 1

; Function Attrs: null_pointer_is_valid sspstrong uwtable
define internal void @post_add_bytes_from_16bytes(ptr noundef %0, ptr noundef %1, i32 noundef %2, i8 noundef zeroext %3) #0 {
  %5 = alloca ptr, align 8
  %6 = alloca ptr, align 8
  %7 = alloca i32, align 4
  %8 = alloca i8, align 1
  %9 = alloca i64, align 8
  %10 = alloca i64, align 8
  store ptr %0, ptr %5, align 8
  store ptr %1, ptr %6, align 8
  store i32 %2, ptr %7, align 4
  store i8 %3, ptr %8, align 1
  call void @llvm.lifetime.start.p0(i64 8, ptr %9) #9
  %11 = load ptr, ptr %6, align 8
  %12 = load i32, ptr %7, align 4
  %13 = call i64 @tvb_get_uint64(ptr noundef %11, i32 noundef %12, i32 noundef 0)
  store i64 %13, ptr %9, align 8
  call void @llvm.lifetime.start.p0(i64 8, ptr %10) #9
  %14 = load ptr, ptr %6, align 8
  %15 = load i32, ptr %7, align 4
  %16 = call i64 @tvb_get_uint64(ptr noundef %14, i32 noundef %15, i32 noundef 8)
  store i64 %16, ptr %10, align 8
  %17 = load i8, ptr %8, align 1
  %18 = icmp ne i8 %17, 0
  br i1 %18, label %19, label %38

19:                                               ; preds = %4
  %20 = load i64, ptr %10, align 8
  %21 = load i8, ptr %8, align 1
  %22 = zext i8 %21 to i32
  %23 = zext i32 %22 to i64
  %24 = shl i64 %20, %23
  store i64 %24, ptr %10, align 8
  %25 = load i64, ptr %9, align 8
  %26 = load i8, ptr %8, align 1
  %27 = zext i8 %26 to i32
  %28 = sub i32 64, %27
  %29 = zext i32 %28 to i64
  %30 = lshr i64 %25, %29
  %31 = load i64, ptr %10, align 8
  %32 = or i64 %31, %30
  store i64 %32, ptr %10, align 8
  %33 = load i64, ptr %9, align 8
  %34 = load i8, ptr %8, align 1
  %35 = zext i8 %34 to i32
  %36 = zext i32 %35 to i64
  %37 = shl i64 %33, %36
  store i64 %37, ptr %9, align 8
  br label %38

38:                                               ; preds = %19, %4
  %39 = load i64, ptr %10, align 8
  %40 = icmp ne i64 %39, 0
  br i1 %40, label %41, label %117

41:                                               ; preds = %38
  %42 = load i64, ptr %10, align 8
  %43 = lshr i64 %42, 10
  %44 = icmp ne i64 %43, 0
  br i1 %44, label %52, label %45

45:                                               ; preds = %41
  %46 = load ptr, ptr %5, align 8
  %47 = load i64, ptr %10, align 8
  %48 = shl i64 %47, 54
  %49 = load i64, ptr %9, align 8
  %50 = lshr i64 %49, 10
  %51 = or i64 %48, %50
  call void (ptr, ptr, ...) @proto_item_append_text(ptr noundef %46, ptr noundef @.str.1787, i64 noundef %51)
  br label %116

52:                                               ; preds = %41
  %53 = load i64, ptr %10, align 8
  %54 = lshr i64 %53, 20
  %55 = icmp ne i64 %54, 0
  br i1 %55, label %63, label %56

56:                                               ; preds = %52
  %57 = load ptr, ptr %5, align 8
  %58 = load i64, ptr %10, align 8
  %59 = shl i64 %58, 44
  %60 = load i64, ptr %9, align 8
  %61 = lshr i64 %60, 20
  %62 = or i64 %59, %61
  call void (ptr, ptr, ...) @proto_item_append_text(ptr noundef %57, ptr noundef @.str.1788, i64 noundef %62)
  br label %115

63:                                               ; preds = %52
  %64 = load i64, ptr %10, align 8
  %65 = lshr i64 %64, 30
  %66 = icmp ne i64 %65, 0
  br i1 %66, label %74, label %67

67:                                               ; preds = %63
  %68 = load ptr, ptr %5, align 8
  %69 = load i64, ptr %10, align 8
  %70 = shl i64 %69, 34
  %71 = load i64, ptr %9, align 8
  %72 = lshr i64 %71, 30
  %73 = or i64 %70, %72
  call void (ptr, ptr, ...) @proto_item_append_text(ptr noundef %68, ptr noundef @.str.1789, i64 noundef %73)
  br label %114

74:                                               ; preds = %63
  %75 = load i64, ptr %10, align 8
  %76 = lshr i64 %75, 40
  %77 = icmp ne i64 %76, 0
  br i1 %77, label %85, label %78

78:                                               ; preds = %74
  %79 = load ptr, ptr %5, align 8
  %80 = load i64, ptr %10, align 8
  %81 = shl i64 %80, 24
  %82 = load i64, ptr %9, align 8
  %83 = lshr i64 %82, 40
  %84 = or i64 %81, %83
  call void (ptr, ptr, ...) @proto_item_append_text(ptr noundef %79, ptr noundef @.str.1790, i64 noundef %84)
  br label %113

85:                                               ; preds = %74
  %86 = load i64, ptr %10, align 8
  %87 = lshr i64 %86, 50
  %88 = icmp ne i64 %87, 0
  br i1 %88, label %96, label %89

89:                                               ; preds = %85
  %90 = load ptr, ptr %5, align 8
  %91 = load i64, ptr %10, align 8
  %92 = shl i64 %91, 14
  %93 = load i64, ptr %9, align 8
  %94 = lshr i64 %93, 50
  %95 = or i64 %92, %94
  call void (ptr, ptr, ...) @proto_item_append_text(ptr noundef %90, ptr noundef @.str.1791, i64 noundef %95)
  br label %112

96:                                               ; preds = %85
  %97 = load i64, ptr %10, align 8
  %98 = lshr i64 %97, 60
  %99 = icmp ne i64 %98, 0
  br i1 %99, label %107, label %100

100:                                              ; preds = %96
  %101 = load ptr, ptr %5, align 8
  %102 = load i64, ptr %10, align 8
  %103 = shl i64 %102, 4
  %104 = load i64, ptr %9, align 8
  %105 = lshr i64 %104, 60
  %106 = or i64 %103, %105
  call void (ptr, ptr, ...) @proto_item_append_text(ptr noundef %101, ptr noundef @.str.1792, i64 noundef %106)
  br label %111

107:                                              ; preds = %96
  %108 = load ptr, ptr %5, align 8
  %109 = load i64, ptr %10, align 8
  %110 = lshr i64 %109, 6
  call void (ptr, ptr, ...) @proto_item_append_text(ptr noundef %108, ptr noundef @.str.1793, i64 noundef %110)
  br label %111

111:                                              ; preds = %107, %100
  br label %112

112:                                              ; preds = %111, %89
  br label %113

113:                                              ; preds = %112, %78
  br label %114

114:                                              ; preds = %113, %67
  br label %115

115:                                              ; preds = %114, %56
  br label %116

116:                                              ; preds = %115, %45
  br label %120

117:                                              ; preds = %38
  %118 = load ptr, ptr %5, align 8
  %119 = load i64, ptr %9, align 8
  call void (ptr, ptr, ...) @proto_item_append_text(ptr noundef %118, ptr noundef @.str.1794, i64 noundef %119)
  br label %120

120:                                              ; preds = %117, %116
  call void @llvm.lifetime.end.p0(i64 8, ptr %10) #9
  call void @llvm.lifetime.end.p0(i64 8, ptr %9) #9
  ret void
}