; Function Attrs: null_pointer_is_valid sspstrong uwtable
define internal fastcc void @post_add_bytes_from_16bytes(ptr noundef %0, ptr noundef %1, i32 noundef range(i32 0, 297) %2, i8 noundef zeroext range(i8 0, 17) %3) unnamed_addr #0 {
  %5 = tail call i64 @tvb_get_uint64(ptr noundef %1, i32 noundef %2, i32 noundef 0)
  %6 = tail call i64 @tvb_get_uint64(ptr noundef %1, i32 noundef %2, i32 noundef 8)
  %.not = icmp eq i8 %3, 0
  br i1 %.not, label %14, label %7

7:                                                ; preds = %4
  %8 = zext nneg i8 %3 to i64
  %9 = shl i64 %6, %8
  %narrow = sub nuw nsw i8 64, %3
  %10 = zext nneg i8 %narrow to i64
  %11 = lshr i64 %5, %10
  %12 = or i64 %9, %11
  %13 = shl i64 %5, %8
  br label %14

14:                                               ; preds = %7, %4
  %.040 = phi i64 [ %13, %7 ], [ %5, %4 ]
  %.0 = phi i64 [ %12, %7 ], [ %6, %4 ]
  %.not42 = icmp eq i64 %.0, 0
  br i1 %.not42, label %35, label %15

15:                                               ; preds = %14
  %.not43 = icmp ult i64 %.0, 1024
  br i1 %.not43, label %16, label %18

16:                                               ; preds = %15
  %17 = tail call i64 @llvm.fshl.i64(i64 %.0, i64 %.040, i64 54)
  tail call void (ptr, ptr, ...) @proto_item_append_text(ptr noundef %0, ptr noundef nonnull @.str.1787, i64 noundef %17)
  br label %36

18:                                               ; preds = %15
  %.not44 = icmp ult i64 %.0, 1048576
  br i1 %.not44, label %19, label %21

19:                                               ; preds = %18
  %20 = tail call i64 @llvm.fshl.i64(i64 %.0, i64 %.040, i64 44)
  tail call void (ptr, ptr, ...) @proto_item_append_text(ptr noundef %0, ptr noundef nonnull @.str.1788, i64 noundef %20)
  br label %36

21:                                               ; preds = %18
  %.not45 = icmp ult i64 %.0, 1073741824
  br i1 %.not45, label %22, label %24

22:                                               ; preds = %21
  %23 = tail call i64 @llvm.fshl.i64(i64 %.0, i64 %.040, i64 34)
  tail call void (ptr, ptr, ...) @proto_item_append_text(ptr noundef %0, ptr noundef nonnull @.str.1789, i64 noundef %23)
  br label %36

24:                                               ; preds = %21
  %.not46 = icmp ult i64 %.0, 1099511627776
  br i1 %.not46, label %25, label %27

25:                                               ; preds = %24
  %26 = tail call i64 @llvm.fshl.i64(i64 %.0, i64 %.040, i64 24)
  tail call void (ptr, ptr, ...) @proto_item_append_text(ptr noundef %0, ptr noundef nonnull @.str.1790, i64 noundef %26)
  br label %36

27:                                               ; preds = %24
  %.not47 = icmp ult i64 %.0, 1125899906842624
  br i1 %.not47, label %28, label %30

28:                                               ; preds = %27
  %29 = tail call i64 @llvm.fshl.i64(i64 %.0, i64 %.040, i64 14)
  tail call void (ptr, ptr, ...) @proto_item_append_text(ptr noundef %0, ptr noundef nonnull @.str.1791, i64 noundef %29)
  br label %36

30:                                               ; preds = %27
  %.not48 = icmp ult i64 %.0, 1152921504606846976
  br i1 %.not48, label %31, label %33

31:                                               ; preds = %30
  %32 = tail call i64 @llvm.fshl.i64(i64 %.0, i64 %.040, i64 4)
  tail call void (ptr, ptr, ...) @proto_item_append_text(ptr noundef %0, ptr noundef nonnull @.str.1792, i64 noundef %32)
  br label %36

33:                                               ; preds = %30
  %34 = lshr i64 %.0, 6
  tail call void (ptr, ptr, ...) @proto_item_append_text(ptr noundef %0, ptr noundef nonnull @.str.1793, i64 noundef %34)
  br label %36

35:                                               ; preds = %14
  tail call void (ptr, ptr, ...) @proto_item_append_text(ptr noundef %0, ptr noundef nonnull @.str.1794, i64 noundef %.040)
  br label %36

36:                                               ; preds = %16, %22, %28, %33, %31, %25, %19, %35
  ret void
}